opt subtitle "HI-TECH Software Omniscient Code Generator (Lite mode) build 7503"

opt pagewidth 120

	opt lm

	processor	16F877A
clrc	macro
	bcf	3,0
	endm
clrz	macro
	bcf	3,2
	endm
setc	macro
	bsf	3,0
	endm
setz	macro
	bsf	3,2
	endm
skipc	macro
	btfss	3,0
	endm
skipz	macro
	btfss	3,2
	endm
skipnc	macro
	btfsc	3,0
	endm
skipnz	macro
	btfsc	3,2
	endm
indf	equ	0
indf0	equ	0
pc	equ	2
pcl	equ	2
status	equ	3
fsr	equ	4
fsr0	equ	4
c	equ	1
z	equ	0
pclath	equ	10
# 3 "C:\Users\user\Desktop\SmartDustbinMpLab\main.c"
	psect config,class=CONFIG,delta=2 ;#
# 3 "C:\Users\user\Desktop\SmartDustbinMpLab\main.c"
	dw 0X3F39 ;#
	FNCALL	_main,___awtoft
	FNCALL	_main,___ftdiv
	FNCALL	_main,___fttol
	FNCALL	___awtoft,___ftpack
	FNCALL	___ftdiv,___ftpack
	FNROOT	_main
	global	_PORTC
psect	text144,local,class=CODE,delta=2
global __ptext144
__ptext144:
_PORTC	set	7
	global	_T1CON
_T1CON	set	16
	global	_TMR1H
_TMR1H	set	15
	global	_TMR1L
_TMR1L	set	14
	global	_RB0
_RB0	set	48
	global	_RB4
_RB4	set	52
	global	_TMR1ON
_TMR1ON	set	128
	global	_TRISB
_TRISB	set	134
	global	_TRISC
_TRISC	set	135
	file	"SmartDustbin.as"
	line	#
psect cinit,class=CODE,delta=2
global start_initialization
start_initialization:

psect cinit,class=CODE,delta=2
global end_of_initialization

;End of C runtime variable initialization code

end_of_initialization:
clrf status
ljmp _main	;jump to C main() function
psect	cstackCOMMON,class=COMMON,space=1
global __pcstackCOMMON
__pcstackCOMMON:
	global	?_main
?_main:	; 0 bytes @ 0x0
	global	?___ftpack
?___ftpack:	; 3 bytes @ 0x0
	global	___ftpack@arg
___ftpack@arg:	; 3 bytes @ 0x0
	ds	3
	global	___ftpack@exp
___ftpack@exp:	; 1 bytes @ 0x3
	ds	1
	global	___ftpack@sign
___ftpack@sign:	; 1 bytes @ 0x4
	ds	1
	global	??___ftpack
??___ftpack:	; 0 bytes @ 0x5
	ds	3
	global	?___fttol
?___fttol:	; 4 bytes @ 0x8
	global	___fttol@f1
___fttol@f1:	; 3 bytes @ 0x8
	ds	4
	global	??___awtoft
??___awtoft:	; 0 bytes @ 0xC
	ds	2
psect	cstackBANK0,class=BANK0,space=1
global __pcstackBANK0
__pcstackBANK0:
	global	??___fttol
??___fttol:	; 0 bytes @ 0x0
	ds	4
	global	___fttol@sign1
___fttol@sign1:	; 1 bytes @ 0x4
	ds	1
	global	___fttol@lval
___fttol@lval:	; 4 bytes @ 0x5
	ds	4
	global	___fttol@exp1
___fttol@exp1:	; 1 bytes @ 0x9
	ds	1
	global	?___awtoft
?___awtoft:	; 3 bytes @ 0xA
	global	___awtoft@c
___awtoft@c:	; 2 bytes @ 0xA
	ds	3
	global	___awtoft@sign
___awtoft@sign:	; 1 bytes @ 0xD
	ds	1
	global	?___ftdiv
?___ftdiv:	; 3 bytes @ 0xE
	global	___ftdiv@f2
___ftdiv@f2:	; 3 bytes @ 0xE
	ds	3
	global	___ftdiv@f1
___ftdiv@f1:	; 3 bytes @ 0x11
	ds	3
	global	??___ftdiv
??___ftdiv:	; 0 bytes @ 0x14
	ds	4
	global	___ftdiv@cntr
___ftdiv@cntr:	; 1 bytes @ 0x18
	ds	1
	global	___ftdiv@f3
___ftdiv@f3:	; 3 bytes @ 0x19
	ds	3
	global	___ftdiv@exp
___ftdiv@exp:	; 1 bytes @ 0x1C
	ds	1
	global	___ftdiv@sign
___ftdiv@sign:	; 1 bytes @ 0x1D
	ds	1
	global	??_main
??_main:	; 0 bytes @ 0x1E
	ds	3
	global	main@a
main@a:	; 2 bytes @ 0x21
	ds	2
;;Data sizes: Strings 0, constant 0, data 0, bss 0, persistent 0 stack 0
;;Auto spaces:   Size  Autos    Used
;; COMMON          14     14      14
;; BANK0           80     35      35
;; BANK1           80      0       0
;; BANK3           96      0       0
;; BANK2           96      0       0

;;
;; Pointer list with targets:

;; ?___ftpack	float  size(1) Largest target is 0
;;
;; ?___fttol	long  size(1) Largest target is 0
;;
;; ?___ftdiv	float  size(1) Largest target is 0
;;
;; ?___awtoft	float  size(1) Largest target is 0
;;


;;
;; Critical Paths under _main in COMMON
;;
;;   _main->___awtoft
;;   ___awtoft->___fttol
;;   ___ftdiv->___awtoft
;;   ___fttol->___ftpack
;;
;; Critical Paths under _main in BANK0
;;
;;   _main->___ftdiv
;;   ___awtoft->___fttol
;;   ___ftdiv->___awtoft
;;
;; Critical Paths under _main in BANK1
;;
;;   None.
;;
;; Critical Paths under _main in BANK3
;;
;;   None.
;;
;; Critical Paths under _main in BANK2
;;
;;   None.

;;
;;Main: autosize = 0, tempsize = 3, incstack = 0, save=0
;;

;;
;;Call Graph Tables:
;;
;; ---------------------------------------------------------------------------------
;; (Depth) Function   	        Calls       Base Space   Used Autos Params    Refs
;; ---------------------------------------------------------------------------------
;; (0) _main                                                 5     5      0    1220
;;                                             30 BANK0      5     5      0
;;                           ___awtoft
;;                            ___ftdiv
;;                            ___fttol
;; ---------------------------------------------------------------------------------
;; (1) ___awtoft                                             6     3      3     300
;;                                             12 COMMON     2     2      0
;;                                             10 BANK0      4     1      3
;;                           ___ftpack
;;                            ___fttol (ARG)
;; ---------------------------------------------------------------------------------
;; (1) ___ftdiv                                             16    10      6     489
;;                                             14 BANK0     16    10      6
;;                           ___ftpack
;;                           ___awtoft (ARG)
;;                            ___fttol (ARG)
;; ---------------------------------------------------------------------------------
;; (1) ___fttol                                             14    10      4     252
;;                                              8 COMMON     4     0      4
;;                                              0 BANK0     10    10      0
;;                           ___ftpack (ARG)
;; ---------------------------------------------------------------------------------
;; (2) ___ftpack                                             8     3      5     209
;;                                              0 COMMON     8     3      5
;; ---------------------------------------------------------------------------------
;; Estimated maximum stack depth 2
;; ---------------------------------------------------------------------------------

;; Call Graph Graphs:

;; _main (ROOT)
;;   ___awtoft
;;     ___ftpack
;;     ___fttol (ARG)
;;       ___ftpack (ARG)
;;   ___ftdiv
;;     ___ftpack
;;     ___awtoft (ARG)
;;       ___ftpack
;;       ___fttol (ARG)
;;         ___ftpack (ARG)
;;     ___fttol (ARG)
;;       ___ftpack (ARG)
;;   ___fttol
;;     ___ftpack (ARG)
;;

;; Address spaces:

;;Name               Size   Autos  Total    Cost      Usage
;;BITCOMMON            E      0       0       0        0.0%
;;EEDATA             100      0       0       0        0.0%
;;NULL                 0      0       0       0        0.0%
;;CODE                 0      0       0       0        0.0%
;;COMMON               E      E       E       1      100.0%
;;BITSFR0              0      0       0       1        0.0%
;;SFR0                 0      0       0       1        0.0%
;;BITSFR1              0      0       0       2        0.0%
;;SFR1                 0      0       0       2        0.0%
;;STACK                0      0       2       2        0.0%
;;ABS                  0      0       0       3        0.0%
;;BITBANK0            50      0       0       4        0.0%
;;BITSFR3              0      0       0       4        0.0%
;;SFR3                 0      0       0       4        0.0%
;;BANK0               50     23      23       5       43.8%
;;BITSFR2              0      0       0       5        0.0%
;;SFR2                 0      0       0       5        0.0%
;;BITBANK1            50      0       0       6        0.0%
;;BANK1               50      0       0       7        0.0%
;;BITBANK3            60      0       0       8        0.0%
;;BANK3               60      0       0       9        0.0%
;;BITBANK2            60      0       0      10        0.0%
;;BANK2               60      0       0      11        0.0%
;;DATA                 0      0       0      12        0.0%

	global	_main
psect	maintext,global,class=CODE,delta=2
global __pmaintext
__pmaintext:

;; *************** function _main *****************
;; Defined at:
;;		line 6 in file "C:\Users\user\Desktop\SmartDustbinMpLab\main.c"
;; Parameters:    Size  Location     Type
;;		None
;; Auto vars:     Size  Location     Type
;;  a               2   33[BANK0 ] int 
;; Return value:  Size  Location     Type
;;		None               void
;; Registers used:
;;		wreg, status,2, status,0, btemp+1, pclath, cstack
;; Tracked objects:
;;		On entry : 17F/0
;;		On exit  : 0/0
;;		Unchanged: 0/0
;; Data sizes:     COMMON   BANK0   BANK1   BANK3   BANK2
;;      Params:         0       0       0       0       0
;;      Locals:         0       2       0       0       0
;;      Temps:          0       3       0       0       0
;;      Totals:         0       5       0       0       0
;;Total ram usage:        5 bytes
;; Hardware stack levels required when called:    2
;; This function calls:
;;		___awtoft
;;		___ftdiv
;;		___fttol
;; This function is called by:
;;		Startup code after reset
;; This function uses a non-reentrant model
;;
psect	maintext
	file	"C:\Users\user\Desktop\SmartDustbinMpLab\main.c"
	line	6
	global	__size_of_main
	__size_of_main	equ	__end_of_main-_main
	
_main:	
	opt	stack 6
; Regs used in _main: [wreg+status,2+status,0+btemp+1+pclath+cstack]
	line	7
	
l2237:	
;main.c: 7: TRISC = 0b00000000;
	bsf	status, 5	;RP0=1, select bank1
	bcf	status, 6	;RP1=0, select bank1
	clrf	(135)^080h	;volatile
	line	8
;main.c: 8: PORTC = 0b00000000;
	bcf	status, 5	;RP0=0, select bank0
	bcf	status, 6	;RP1=0, select bank0
	clrf	(7)	;volatile
	line	10
	
l2239:	
;main.c: 9: int a;
;main.c: 10: TRISB = 0b00010000;
	movlw	(010h)
	bsf	status, 5	;RP0=1, select bank1
	bcf	status, 6	;RP1=0, select bank1
	movwf	(134)^080h	;volatile
	line	11
	
l2241:	
;main.c: 11: T1CON = 0x10;
	movlw	(010h)
	bcf	status, 5	;RP0=0, select bank0
	bcf	status, 6	;RP1=0, select bank0
	movwf	(16)	;volatile
	line	12
;main.c: 12: while(1)
	
l687:	
	line	14
;main.c: 13: {
;main.c: 14: TMR1H = 0;
	bcf	status, 5	;RP0=0, select bank0
	bcf	status, 6	;RP1=0, select bank0
	clrf	(15)	;volatile
	line	15
;main.c: 15: TMR1L = 0;
	clrf	(14)	;volatile
	line	16
	
l2243:	
;main.c: 16: RB0 = 1;
	bsf	(48/8),(48)&7
	line	17
	
l2245:	
;main.c: 17: _delay((unsigned long)((10)*(4000000/4000000.0)));
	opt asmopt_off
movlw	3
movwf	(??_main+0)+0,f
u3057:
decfsz	(??_main+0)+0,f
	goto	u3057
opt asmopt_on

	line	18
	
l2247:	
;main.c: 18: RB0 = 0;
	bcf	status, 5	;RP0=0, select bank0
	bcf	status, 6	;RP1=0, select bank0
	bcf	(48/8),(48)&7
	line	19
;main.c: 19: while(!RB4);
	goto	l688
	
l689:	
	
l688:	
	btfss	(52/8),(52)&7
	goto	u2971
	goto	u2970
u2971:
	goto	l688
u2970:
	
l690:	
	line	20
;main.c: 20: TMR1ON = 1;
	bsf	(128/8),(128)&7
	line	21
;main.c: 21: while(RB4);
	goto	l691
	
l692:	
	
l691:	
	btfsc	(52/8),(52)&7
	goto	u2981
	goto	u2980
u2981:
	goto	l691
u2980:
	
l693:	
	line	22
;main.c: 22: TMR1ON = 0;
	bcf	(128/8),(128)&7
	line	23
	
l2249:	
;main.c: 23: a = (TMR1L | (TMR1H<<8));
	movf	(15),w	;volatile
	movwf	(??_main+0)+0
	clrf	(??_main+0)+0+1
	movf	(??_main+0)+0,w
	movwf	(??_main+0)+1
	clrf	(??_main+0)+0
	movf	0+(??_main+0)+0,w
	iorwf	(14),w	;volatile
	movwf	(main@a)
	movf	1+(??_main+0)+0,w
	movwf	1+(main@a)
	line	24
	
l2251:	
;main.c: 24: a = a/(29.41);
	movf	(main@a+1),w
	clrf	(?___awtoft+1)
	addwf	(?___awtoft+1)
	movf	(main@a),w
	clrf	(?___awtoft)
	addwf	(?___awtoft)

	fcall	___awtoft
	bcf	status, 5	;RP0=0, select bank0
	bcf	status, 6	;RP1=0, select bank0
	movf	(0+(?___awtoft)),w
	movwf	0+(?___ftdiv)+03h
	movf	(1+(?___awtoft)),w
	movwf	1+(?___ftdiv)+03h
	movf	(2+(?___awtoft)),w
	movwf	2+(?___ftdiv)+03h
	movlw	0x48
	movwf	(?___ftdiv)
	movlw	0xeb
	movwf	(?___ftdiv+1)
	movlw	0x41
	movwf	(?___ftdiv+2)
	fcall	___ftdiv
	bcf	status, 5	;RP0=0, select bank0
	bcf	status, 6	;RP1=0, select bank0
	movf	(0+(?___ftdiv)),w
	movwf	(?___fttol)
	movf	(1+(?___ftdiv)),w
	movwf	(?___fttol+1)
	movf	(2+(?___ftdiv)),w
	movwf	(?___fttol+2)
	fcall	___fttol
	movf	1+(((0+(?___fttol)))),w
	bcf	status, 5	;RP0=0, select bank0
	bcf	status, 6	;RP1=0, select bank0
	clrf	(main@a+1)
	addwf	(main@a+1)
	movf	0+(((0+(?___fttol)))),w
	clrf	(main@a)
	addwf	(main@a)

	line	25
	
l2253:	
;main.c: 25: a = a + 1;
	movf	(main@a),w
	addlw	low(01h)
	movwf	(main@a)
	movf	(main@a+1),w
	skipnc
	addlw	1
	addlw	high(01h)
	movwf	1+(main@a)
	line	26
	
l2255:	
;main.c: 26: if(a >= 2 && a <= 10){
	movf	(main@a+1),w
	xorlw	80h
	movwf	btemp+1
	movlw	(high(02h))^80h
	subwf	btemp+1,w
	skipz
	goto	u2995
	movlw	low(02h)
	subwf	(main@a),w
u2995:

	skipc
	goto	u2991
	goto	u2990
u2991:
	goto	l2261
u2990:
	
l2257:	
	bcf	status, 5	;RP0=0, select bank0
	bcf	status, 6	;RP1=0, select bank0
	movf	(main@a+1),w
	xorlw	80h
	movwf	btemp+1
	movlw	(high(0Bh))^80h
	subwf	btemp+1,w
	skipz
	goto	u3005
	movlw	low(0Bh)
	subwf	(main@a),w
u3005:

	skipnc
	goto	u3001
	goto	u3000
u3001:
	goto	l2261
u3000:
	line	27
	
l2259:	
;main.c: 27: PORTC = 0b00000001;
	movlw	(01h)
	bcf	status, 5	;RP0=0, select bank0
	bcf	status, 6	;RP1=0, select bank0
	movwf	(7)	;volatile
	line	28
;main.c: 28: } else if(a >= 11 && a <= 20){
	goto	l2275
	
l694:	
	
l2261:	
	bcf	status, 5	;RP0=0, select bank0
	bcf	status, 6	;RP1=0, select bank0
	movf	(main@a+1),w
	xorlw	80h
	movwf	btemp+1
	movlw	(high(0Bh))^80h
	subwf	btemp+1,w
	skipz
	goto	u3015
	movlw	low(0Bh)
	subwf	(main@a),w
u3015:

	skipc
	goto	u3011
	goto	u3010
u3011:
	goto	l2267
u3010:
	
l2263:	
	bcf	status, 5	;RP0=0, select bank0
	bcf	status, 6	;RP1=0, select bank0
	movf	(main@a+1),w
	xorlw	80h
	movwf	btemp+1
	movlw	(high(015h))^80h
	subwf	btemp+1,w
	skipz
	goto	u3025
	movlw	low(015h)
	subwf	(main@a),w
u3025:

	skipnc
	goto	u3021
	goto	u3020
u3021:
	goto	l2267
u3020:
	line	29
	
l2265:	
;main.c: 29: PORTC = 0b00000011;
	movlw	(03h)
	bcf	status, 5	;RP0=0, select bank0
	bcf	status, 6	;RP1=0, select bank0
	movwf	(7)	;volatile
	line	30
;main.c: 30: }else if(a >= 21 && a <= 30){
	goto	l2275
	
l696:	
	
l2267:	
	bcf	status, 5	;RP0=0, select bank0
	bcf	status, 6	;RP1=0, select bank0
	movf	(main@a+1),w
	xorlw	80h
	movwf	btemp+1
	movlw	(high(015h))^80h
	subwf	btemp+1,w
	skipz
	goto	u3035
	movlw	low(015h)
	subwf	(main@a),w
u3035:

	skipc
	goto	u3031
	goto	u3030
u3031:
	goto	l2273
u3030:
	
l2269:	
	bcf	status, 5	;RP0=0, select bank0
	bcf	status, 6	;RP1=0, select bank0
	movf	(main@a+1),w
	xorlw	80h
	movwf	btemp+1
	movlw	(high(01Fh))^80h
	subwf	btemp+1,w
	skipz
	goto	u3045
	movlw	low(01Fh)
	subwf	(main@a),w
u3045:

	skipnc
	goto	u3041
	goto	u3040
u3041:
	goto	l2273
u3040:
	line	31
	
l2271:	
;main.c: 31: PORTC = 0b00000111;
	movlw	(07h)
	bcf	status, 5	;RP0=0, select bank0
	bcf	status, 6	;RP1=0, select bank0
	movwf	(7)	;volatile
	line	32
;main.c: 32: }else {
	goto	l2275
	
l698:	
	line	33
	
l2273:	
;main.c: 33: PORTC = 0b00000000;
	bcf	status, 5	;RP0=0, select bank0
	bcf	status, 6	;RP1=0, select bank0
	clrf	(7)	;volatile
	goto	l2275
	line	34
	
l699:	
	goto	l2275
	
l697:	
	goto	l2275
	
l695:	
	line	35
	
l2275:	
;main.c: 34: }
;main.c: 35: _delay((unsigned long)((400)*(4000000/4000.0)));
	opt asmopt_off
movlw  3
movwf	((??_main+0)+0+2),f
movlw	6
movwf	((??_main+0)+0+1),f
	movlw	119
movwf	((??_main+0)+0),f
u3067:
	decfsz	((??_main+0)+0),f
	goto	u3067
	decfsz	((??_main+0)+0+1),f
	goto	u3067
	decfsz	((??_main+0)+0+2),f
	goto	u3067
	clrwdt
opt asmopt_on

	goto	l687
	line	36
	
l700:	
	line	12
	goto	l687
	
l701:	
	line	37
	
l702:	
	global	start
	ljmp	start
	opt stack 0
GLOBAL	__end_of_main
	__end_of_main:
;; =============== function _main ends ============

	signat	_main,88
	global	___awtoft
psect	text145,local,class=CODE,delta=2
global __ptext145
__ptext145:

;; *************** function ___awtoft *****************
;; Defined at:
;;		line 33 in file "C:\Program Files (x86)\HI-TECH Software\PICC\9.81\sources\awtoft.c"
;; Parameters:    Size  Location     Type
;;  c               2   10[BANK0 ] int 
;; Auto vars:     Size  Location     Type
;;  sign            1   13[BANK0 ] unsigned char 
;; Return value:  Size  Location     Type
;;                  3   10[BANK0 ] float 
;; Registers used:
;;		wreg, status,2, status,0, pclath, cstack
;; Tracked objects:
;;		On entry : 0/0
;;		On exit  : 0/0
;;		Unchanged: 0/0
;; Data sizes:     COMMON   BANK0   BANK1   BANK3   BANK2
;;      Params:         0       3       0       0       0
;;      Locals:         0       1       0       0       0
;;      Temps:          2       0       0       0       0
;;      Totals:         2       4       0       0       0
;;Total ram usage:        6 bytes
;; Hardware stack levels used:    1
;; Hardware stack levels required when called:    1
;; This function calls:
;;		___ftpack
;; This function is called by:
;;		_main
;; This function uses a non-reentrant model
;;
psect	text145
	file	"C:\Program Files (x86)\HI-TECH Software\PICC\9.81\sources\awtoft.c"
	line	33
	global	__size_of___awtoft
	__size_of___awtoft	equ	__end_of___awtoft-___awtoft
	
___awtoft:	
	opt	stack 6
; Regs used in ___awtoft: [wreg+status,2+status,0+pclath+cstack]
	line	36
	
l2229:	
	bcf	status, 5	;RP0=0, select bank0
	bcf	status, 6	;RP1=0, select bank0
	clrf	(___awtoft@sign)
	line	37
	btfss	(___awtoft@c+1),7
	goto	u2961
	goto	u2960
u2961:
	goto	l2233
u2960:
	line	38
	
l2231:	
	comf	(___awtoft@c),f
	comf	(___awtoft@c+1),f
	incf	(___awtoft@c),f
	skipnz
	incf	(___awtoft@c+1),f
	line	39
	clrf	(___awtoft@sign)
	bsf	status,0
	rlf	(___awtoft@sign),f
	goto	l2233
	line	40
	
l847:	
	line	41
	
l2233:	
	movf	(___awtoft@c),w
	movwf	(?___ftpack)
	movf	(___awtoft@c+1),w
	movwf	(?___ftpack+1)
	clrf	(?___ftpack+2)
	movlw	(08Eh)
	movwf	(??___awtoft+0)+0
	movf	(??___awtoft+0)+0,w
	movwf	0+(?___ftpack)+03h
	movf	(___awtoft@sign),w
	movwf	(??___awtoft+1)+0
	movf	(??___awtoft+1)+0,w
	movwf	0+(?___ftpack)+04h
	fcall	___ftpack
	movf	(0+(?___ftpack)),w
	bcf	status, 5	;RP0=0, select bank0
	bcf	status, 6	;RP1=0, select bank0
	movwf	(?___awtoft)
	movf	(1+(?___ftpack)),w
	movwf	(?___awtoft+1)
	movf	(2+(?___ftpack)),w
	movwf	(?___awtoft+2)
	goto	l848
	
l2235:	
	line	42
	
l848:	
	return
	opt stack 0
GLOBAL	__end_of___awtoft
	__end_of___awtoft:
;; =============== function ___awtoft ends ============

	signat	___awtoft,4219
	global	___ftdiv
psect	text146,local,class=CODE,delta=2
global __ptext146
__ptext146:

;; *************** function ___ftdiv *****************
;; Defined at:
;;		line 50 in file "C:\Program Files (x86)\HI-TECH Software\PICC\9.81\sources\ftdiv.c"
;; Parameters:    Size  Location     Type
;;  f2              3   14[BANK0 ] float 
;;  f1              3   17[BANK0 ] float 
;; Auto vars:     Size  Location     Type
;;  f3              3   25[BANK0 ] float 
;;  sign            1   29[BANK0 ] unsigned char 
;;  exp             1   28[BANK0 ] unsigned char 
;;  cntr            1   24[BANK0 ] unsigned char 
;; Return value:  Size  Location     Type
;;                  3   14[BANK0 ] float 
;; Registers used:
;;		wreg, status,2, status,0, pclath, cstack
;; Tracked objects:
;;		On entry : 0/0
;;		On exit  : 0/0
;;		Unchanged: 0/0
;; Data sizes:     COMMON   BANK0   BANK1   BANK3   BANK2
;;      Params:         0       6       0       0       0
;;      Locals:         0       6       0       0       0
;;      Temps:          0       4       0       0       0
;;      Totals:         0      16       0       0       0
;;Total ram usage:       16 bytes
;; Hardware stack levels used:    1
;; Hardware stack levels required when called:    1
;; This function calls:
;;		___ftpack
;; This function is called by:
;;		_main
;; This function uses a non-reentrant model
;;
psect	text146
	file	"C:\Program Files (x86)\HI-TECH Software\PICC\9.81\sources\ftdiv.c"
	line	50
	global	__size_of___ftdiv
	__size_of___ftdiv	equ	__end_of___ftdiv-___ftdiv
	
___ftdiv:	
	opt	stack 6
; Regs used in ___ftdiv: [wreg+status,2+status,0+pclath+cstack]
	line	55
	
l2187:	
	bcf	status, 5	;RP0=0, select bank0
	bcf	status, 6	;RP1=0, select bank0
	movf	(___ftdiv@f1),w
	movwf	((??___ftdiv+0)+0)
	movf	(___ftdiv@f1+1),w
	movwf	((??___ftdiv+0)+0+1)
	movf	(___ftdiv@f1+2),w
	movwf	((??___ftdiv+0)+0+2)
	clrc
	rlf	(??___ftdiv+0)+1,w
	rlf	(??___ftdiv+0)+2,w
	movwf	(??___ftdiv+3)+0
	movf	(??___ftdiv+3)+0,w
	movwf	(___ftdiv@exp)
	movf	((___ftdiv@exp)),f
	skipz
	goto	u2881
	goto	u2880
u2881:
	goto	l2193
u2880:
	line	56
	
l2189:	
	movlw	0x0
	movwf	(?___ftdiv)
	movlw	0x0
	movwf	(?___ftdiv+1)
	movlw	0x0
	movwf	(?___ftdiv+2)
	goto	l800
	
l2191:	
	goto	l800
	
l799:	
	line	57
	
l2193:	
	movf	(___ftdiv@f2),w
	movwf	((??___ftdiv+0)+0)
	movf	(___ftdiv@f2+1),w
	movwf	((??___ftdiv+0)+0+1)
	movf	(___ftdiv@f2+2),w
	movwf	((??___ftdiv+0)+0+2)
	clrc
	rlf	(??___ftdiv+0)+1,w
	rlf	(??___ftdiv+0)+2,w
	movwf	(??___ftdiv+3)+0
	movf	(??___ftdiv+3)+0,w
	movwf	(___ftdiv@sign)
	movf	((___ftdiv@sign)),f
	skipz
	goto	u2891
	goto	u2890
u2891:
	goto	l2199
u2890:
	line	58
	
l2195:	
	movlw	0x0
	movwf	(?___ftdiv)
	movlw	0x0
	movwf	(?___ftdiv+1)
	movlw	0x0
	movwf	(?___ftdiv+2)
	goto	l800
	
l2197:	
	goto	l800
	
l801:	
	line	59
	
l2199:	
	movlw	0
	movwf	(___ftdiv@f3)
	movlw	0
	movwf	(___ftdiv@f3+1)
	movlw	0
	movwf	(___ftdiv@f3+2)
	line	60
	
l2201:	
	movlw	(089h)
	addwf	(___ftdiv@sign),w
	movwf	(??___ftdiv+0)+0
	movf	0+(??___ftdiv+0)+0,w
	subwf	(___ftdiv@exp),f
	line	61
	
l2203:	
	movf	(___ftdiv@f1),w
	movwf	((??___ftdiv+0)+0)
	movf	(___ftdiv@f1+1),w
	movwf	((??___ftdiv+0)+0+1)
	movf	(___ftdiv@f1+2),w
	movwf	((??___ftdiv+0)+0+2)
	movlw	010h
u2905:
	clrc
	rrf	(??___ftdiv+0)+2,f
	rrf	(??___ftdiv+0)+1,f
	rrf	(??___ftdiv+0)+0,f
u2900:
	addlw	-1
	skipz
	goto	u2905
	movf	0+(??___ftdiv+0)+0,w
	movwf	(??___ftdiv+3)+0
	movf	(??___ftdiv+3)+0,w
	movwf	(___ftdiv@sign)
	line	62
	
l2205:	
	movf	(___ftdiv@f2),w
	movwf	((??___ftdiv+0)+0)
	movf	(___ftdiv@f2+1),w
	movwf	((??___ftdiv+0)+0+1)
	movf	(___ftdiv@f2+2),w
	movwf	((??___ftdiv+0)+0+2)
	movlw	010h
u2915:
	clrc
	rrf	(??___ftdiv+0)+2,f
	rrf	(??___ftdiv+0)+1,f
	rrf	(??___ftdiv+0)+0,f
u2910:
	addlw	-1
	skipz
	goto	u2915
	movf	0+(??___ftdiv+0)+0,w
	movwf	(??___ftdiv+3)+0
	movf	(??___ftdiv+3)+0,w
	xorwf	(___ftdiv@sign),f
	line	63
	
l2207:	
	movlw	(080h)
	movwf	(??___ftdiv+0)+0
	movf	(??___ftdiv+0)+0,w
	andwf	(___ftdiv@sign),f
	line	64
	
l2209:	
	bsf	(___ftdiv@f1)+(15/8),(15)&7
	line	65
	movlw	0FFh
	andwf	(___ftdiv@f1),f
	movlw	0FFh
	andwf	(___ftdiv@f1+1),f
	movlw	0
	andwf	(___ftdiv@f1+2),f
	line	66
	
l2211:	
	bsf	(___ftdiv@f2)+(15/8),(15)&7
	line	67
	movlw	0FFh
	andwf	(___ftdiv@f2),f
	movlw	0FFh
	andwf	(___ftdiv@f2+1),f
	movlw	0
	andwf	(___ftdiv@f2+2),f
	line	68
	movlw	(018h)
	movwf	(??___ftdiv+0)+0
	movf	(??___ftdiv+0)+0,w
	movwf	(___ftdiv@cntr)
	goto	l2213
	line	69
	
l802:	
	line	70
	
l2213:	
	movlw	01h
u2925:
	clrc
	rlf	(___ftdiv@f3),f
	rlf	(___ftdiv@f3+1),f
	rlf	(___ftdiv@f3+2),f
	addlw	-1
	skipz
	goto	u2925
	line	71
	
l2215:	
	movf	(___ftdiv@f2+2),w
	subwf	(___ftdiv@f1+2),w
	skipz
	goto	u2935
	movf	(___ftdiv@f2+1),w
	subwf	(___ftdiv@f1+1),w
	skipz
	goto	u2935
	movf	(___ftdiv@f2),w
	subwf	(___ftdiv@f1),w
u2935:
	skipc
	goto	u2931
	goto	u2930
u2931:
	goto	l2221
u2930:
	line	72
	
l2217:	
	movf	(___ftdiv@f2),w
	subwf	(___ftdiv@f1),f
	movf	(___ftdiv@f2+1),w
	skipc
	incfsz	(___ftdiv@f2+1),w
	subwf	(___ftdiv@f1+1),f
	movf	(___ftdiv@f2+2),w
	skipc
	incf	(___ftdiv@f2+2),w
	subwf	(___ftdiv@f1+2),f
	line	73
	
l2219:	
	bsf	(___ftdiv@f3)+(0/8),(0)&7
	goto	l2221
	line	74
	
l803:	
	line	75
	
l2221:	
	movlw	01h
u2945:
	clrc
	rlf	(___ftdiv@f1),f
	rlf	(___ftdiv@f1+1),f
	rlf	(___ftdiv@f1+2),f
	addlw	-1
	skipz
	goto	u2945
	line	76
	
l2223:	
	movlw	low(01h)
	subwf	(___ftdiv@cntr),f
	btfss	status,2
	goto	u2951
	goto	u2950
u2951:
	goto	l2213
u2950:
	goto	l2225
	
l804:	
	line	77
	
l2225:	
	movf	(___ftdiv@f3),w
	movwf	(?___ftpack)
	movf	(___ftdiv@f3+1),w
	movwf	(?___ftpack+1)
	movf	(___ftdiv@f3+2),w
	movwf	(?___ftpack+2)
	movf	(___ftdiv@exp),w
	movwf	(??___ftdiv+0)+0
	movf	(??___ftdiv+0)+0,w
	movwf	0+(?___ftpack)+03h
	movf	(___ftdiv@sign),w
	movwf	(??___ftdiv+1)+0
	movf	(??___ftdiv+1)+0,w
	movwf	0+(?___ftpack)+04h
	fcall	___ftpack
	movf	(0+(?___ftpack)),w
	bcf	status, 5	;RP0=0, select bank0
	bcf	status, 6	;RP1=0, select bank0
	movwf	(?___ftdiv)
	movf	(1+(?___ftpack)),w
	movwf	(?___ftdiv+1)
	movf	(2+(?___ftpack)),w
	movwf	(?___ftdiv+2)
	goto	l800
	
l2227:	
	line	78
	
l800:	
	return
	opt stack 0
GLOBAL	__end_of___ftdiv
	__end_of___ftdiv:
;; =============== function ___ftdiv ends ============

	signat	___ftdiv,8315
	global	___fttol
psect	text147,local,class=CODE,delta=2
global __ptext147
__ptext147:

;; *************** function ___fttol *****************
;; Defined at:
;;		line 45 in file "C:\Program Files (x86)\HI-TECH Software\PICC\9.81\sources\fttol.c"
;; Parameters:    Size  Location     Type
;;  f1              3    8[COMMON] float 
;; Auto vars:     Size  Location     Type
;;  lval            4    5[BANK0 ] unsigned long 
;;  exp1            1    9[BANK0 ] unsigned char 
;;  sign1           1    4[BANK0 ] unsigned char 
;; Return value:  Size  Location     Type
;;                  4    8[COMMON] long 
;; Registers used:
;;		wreg, status,2, status,0
;; Tracked objects:
;;		On entry : 0/0
;;		On exit  : 0/0
;;		Unchanged: 0/0
;; Data sizes:     COMMON   BANK0   BANK1   BANK3   BANK2
;;      Params:         4       0       0       0       0
;;      Locals:         0       6       0       0       0
;;      Temps:          0       4       0       0       0
;;      Totals:         4      10       0       0       0
;;Total ram usage:       14 bytes
;; Hardware stack levels used:    1
;; This function calls:
;;		Nothing
;; This function is called by:
;;		_main
;; This function uses a non-reentrant model
;;
psect	text147
	file	"C:\Program Files (x86)\HI-TECH Software\PICC\9.81\sources\fttol.c"
	line	45
	global	__size_of___fttol
	__size_of___fttol	equ	__end_of___fttol-___fttol
	
___fttol:	
	opt	stack 7
; Regs used in ___fttol: [wreg+status,2+status,0]
	line	49
	
l2085:	
	movf	(___fttol@f1),w
	bcf	status, 5	;RP0=0, select bank0
	bcf	status, 6	;RP1=0, select bank0
	movwf	((??___fttol+0)+0)
	movf	(___fttol@f1+1),w
	movwf	((??___fttol+0)+0+1)
	movf	(___fttol@f1+2),w
	movwf	((??___fttol+0)+0+2)
	clrc
	rlf	(??___fttol+0)+1,w
	rlf	(??___fttol+0)+2,w
	movwf	(??___fttol+3)+0
	movf	(??___fttol+3)+0,w
	movwf	(___fttol@exp1)
	movf	((___fttol@exp1)),f
	skipz
	goto	u2711
	goto	u2710
u2711:
	goto	l2091
u2710:
	line	50
	
l2087:	
	movlw	0
	movwf	(?___fttol+3)
	movlw	0
	movwf	(?___fttol+2)
	movlw	0
	movwf	(?___fttol+1)
	movlw	0
	movwf	(?___fttol)

	goto	l821
	
l2089:	
	goto	l821
	
l820:	
	line	51
	
l2091:	
	movf	(___fttol@f1),w
	movwf	((??___fttol+0)+0)
	movf	(___fttol@f1+1),w
	movwf	((??___fttol+0)+0+1)
	movf	(___fttol@f1+2),w
	movwf	((??___fttol+0)+0+2)
	movlw	017h
u2725:
	clrc
	rrf	(??___fttol+0)+2,f
	rrf	(??___fttol+0)+1,f
	rrf	(??___fttol+0)+0,f
u2720:
	addlw	-1
	skipz
	goto	u2725
	movf	0+(??___fttol+0)+0,w
	movwf	(??___fttol+3)+0
	movf	(??___fttol+3)+0,w
	movwf	(___fttol@sign1)
	line	52
	
l2093:	
	bsf	(___fttol@f1)+(15/8),(15)&7
	line	53
	
l2095:	
	movlw	0FFh
	andwf	(___fttol@f1),f
	movlw	0FFh
	andwf	(___fttol@f1+1),f
	movlw	0
	andwf	(___fttol@f1+2),f
	line	54
	
l2097:	
	movf	(___fttol@f1),w
	movwf	(___fttol@lval)
	movf	(___fttol@f1+1),w
	movwf	((___fttol@lval))+1
	movf	(___fttol@f1+2),w
	movwf	((___fttol@lval))+2
	clrf	((___fttol@lval))+3
	line	55
	
l2099:	
	movlw	low(08Eh)
	subwf	(___fttol@exp1),f
	line	56
	
l2101:	
	btfss	(___fttol@exp1),7
	goto	u2731
	goto	u2730
u2731:
	goto	l2111
u2730:
	line	57
	
l2103:	
	movf	(___fttol@exp1),w
	xorlw	80h
	addlw	-((-15)^80h)
	skipnc
	goto	u2741
	goto	u2740
u2741:
	goto	l2109
u2740:
	line	58
	
l2105:	
	movlw	0
	movwf	(?___fttol+3)
	movlw	0
	movwf	(?___fttol+2)
	movlw	0
	movwf	(?___fttol+1)
	movlw	0
	movwf	(?___fttol)

	goto	l821
	
l2107:	
	goto	l821
	
l823:	
	goto	l2109
	line	59
	
l824:	
	line	60
	
l2109:	
	movlw	01h
u2755:
	clrc
	rrf	(___fttol@lval+3),f
	rrf	(___fttol@lval+2),f
	rrf	(___fttol@lval+1),f
	rrf	(___fttol@lval),f
	addlw	-1
	skipz
	goto	u2755

	line	61
	movlw	(01h)
	movwf	(??___fttol+0)+0
	movf	(??___fttol+0)+0,w
	addwf	(___fttol@exp1),f
	btfss	status,2
	goto	u2761
	goto	u2760
u2761:
	goto	l2109
u2760:
	goto	l2121
	
l825:	
	line	62
	goto	l2121
	
l822:	
	line	63
	
l2111:	
	movlw	(018h)
	subwf	(___fttol@exp1),w
	skipc
	goto	u2771
	goto	u2770
u2771:
	goto	l2119
u2770:
	line	64
	
l2113:	
	movlw	0
	movwf	(?___fttol+3)
	movlw	0
	movwf	(?___fttol+2)
	movlw	0
	movwf	(?___fttol+1)
	movlw	0
	movwf	(?___fttol)

	goto	l821
	
l2115:	
	goto	l821
	
l827:	
	line	65
	goto	l2119
	
l829:	
	line	66
	
l2117:	
	movlw	01h
	movwf	(??___fttol+0)+0
u2785:
	clrc
	rlf	(___fttol@lval),f
	rlf	(___fttol@lval+1),f
	rlf	(___fttol@lval+2),f
	rlf	(___fttol@lval+3),f
	decfsz	(??___fttol+0)+0
	goto	u2785
	line	67
	movlw	low(01h)
	subwf	(___fttol@exp1),f
	goto	l2119
	line	68
	
l828:	
	line	65
	
l2119:	
	movf	(___fttol@exp1),f
	skipz
	goto	u2791
	goto	u2790
u2791:
	goto	l2117
u2790:
	goto	l2121
	
l830:	
	goto	l2121
	line	69
	
l826:	
	line	70
	
l2121:	
	movf	(___fttol@sign1),w
	skipz
	goto	u2800
	goto	l2125
u2800:
	line	71
	
l2123:	
	comf	(___fttol@lval),f
	comf	(___fttol@lval+1),f
	comf	(___fttol@lval+2),f
	comf	(___fttol@lval+3),f
	incf	(___fttol@lval),f
	skipnz
	incf	(___fttol@lval+1),f
	skipnz
	incf	(___fttol@lval+2),f
	skipnz
	incf	(___fttol@lval+3),f
	goto	l2125
	
l831:	
	line	72
	
l2125:	
	movf	(___fttol@lval+3),w
	movwf	(?___fttol+3)
	movf	(___fttol@lval+2),w
	movwf	(?___fttol+2)
	movf	(___fttol@lval+1),w
	movwf	(?___fttol+1)
	movf	(___fttol@lval),w
	movwf	(?___fttol)

	goto	l821
	
l2127:	
	line	73
	
l821:	
	return
	opt stack 0
GLOBAL	__end_of___fttol
	__end_of___fttol:
;; =============== function ___fttol ends ============

	signat	___fttol,4220
	global	___ftpack
psect	text148,local,class=CODE,delta=2
global __ptext148
__ptext148:

;; *************** function ___ftpack *****************
;; Defined at:
;;		line 63 in file "C:\Program Files (x86)\HI-TECH Software\PICC\9.81\sources\float.c"
;; Parameters:    Size  Location     Type
;;  arg             3    0[COMMON] unsigned um
;;  exp             1    3[COMMON] unsigned char 
;;  sign            1    4[COMMON] unsigned char 
;; Auto vars:     Size  Location     Type
;;		None
;; Return value:  Size  Location     Type
;;                  3    0[COMMON] float 
;; Registers used:
;;		wreg, status,2, status,0
;; Tracked objects:
;;		On entry : 0/0
;;		On exit  : 0/0
;;		Unchanged: 0/0
;; Data sizes:     COMMON   BANK0   BANK1   BANK3   BANK2
;;      Params:         5       0       0       0       0
;;      Locals:         0       0       0       0       0
;;      Temps:          3       0       0       0       0
;;      Totals:         8       0       0       0       0
;;Total ram usage:        8 bytes
;; Hardware stack levels used:    1
;; This function calls:
;;		Nothing
;; This function is called by:
;;		___ftdiv
;;		___awtoft
;;		___ftadd
;;		___ftmul
;;		___lbtoft
;;		___abtoft
;;		___lwtoft
;;		___altoft
;;		___lltoft
;;		___attoft
;;		___lttoft
;; This function uses a non-reentrant model
;;
psect	text148
	file	"C:\Program Files (x86)\HI-TECH Software\PICC\9.81\sources\float.c"
	line	63
	global	__size_of___ftpack
	__size_of___ftpack	equ	__end_of___ftpack-___ftpack
	
___ftpack:	
	opt	stack 6
; Regs used in ___ftpack: [wreg+status,2+status,0]
	line	64
	
l2003:	
	movf	(___ftpack@exp),w
	skipz
	goto	u2460
	goto	l2007
u2460:
	
l2005:	
	movf	(___ftpack@arg+2),w
	iorwf	(___ftpack@arg+1),w
	iorwf	(___ftpack@arg),w
	skipz
	goto	u2471
	goto	u2470
u2471:
	goto	l2013
u2470:
	goto	l2007
	
l1045:	
	line	65
	
l2007:	
	movlw	0x0
	movwf	(?___ftpack)
	movlw	0x0
	movwf	(?___ftpack+1)
	movlw	0x0
	movwf	(?___ftpack+2)
	goto	l1046
	
l2009:	
	goto	l1046
	
l1043:	
	line	66
	goto	l2013
	
l1048:	
	line	67
	
l2011:	
	movlw	(01h)
	movwf	(??___ftpack+0)+0
	movf	(??___ftpack+0)+0,w
	addwf	(___ftpack@exp),f
	line	68
	movlw	01h
u2485:
	clrc
	rrf	(___ftpack@arg+2),f
	rrf	(___ftpack@arg+1),f
	rrf	(___ftpack@arg),f
	addlw	-1
	skipz
	goto	u2485

	goto	l2013
	line	69
	
l1047:	
	line	66
	
l2013:	
	movlw	low highword(0FE0000h)
	andwf	(___ftpack@arg+2),w
	btfss	status,2
	goto	u2491
	goto	u2490
u2491:
	goto	l2011
u2490:
	goto	l1050
	
l1049:	
	line	70
	goto	l1050
	
l1051:	
	line	71
	
l2015:	
	movlw	(01h)
	movwf	(??___ftpack+0)+0
	movf	(??___ftpack+0)+0,w
	addwf	(___ftpack@exp),f
	line	72
	
l2017:	
	movlw	01h
	addwf	(___ftpack@arg),f
	movlw	0
	skipnc
movlw 1
	addwf	(___ftpack@arg+1),f
	movlw	0
	skipnc
movlw 1
	addwf	(___ftpack@arg+2),f
	line	73
	
l2019:	
	movlw	01h
u2505:
	clrc
	rrf	(___ftpack@arg+2),f
	rrf	(___ftpack@arg+1),f
	rrf	(___ftpack@arg),f
	addlw	-1
	skipz
	goto	u2505

	line	74
	
l1050:	
	line	70
	movlw	low highword(0FF0000h)
	andwf	(___ftpack@arg+2),w
	btfss	status,2
	goto	u2511
	goto	u2510
u2511:
	goto	l2015
u2510:
	goto	l2023
	
l1052:	
	line	75
	goto	l2023
	
l1054:	
	line	76
	
l2021:	
	movlw	low(01h)
	subwf	(___ftpack@exp),f
	line	77
	movlw	01h
u2525:
	clrc
	rlf	(___ftpack@arg),f
	rlf	(___ftpack@arg+1),f
	rlf	(___ftpack@arg+2),f
	addlw	-1
	skipz
	goto	u2525
	goto	l2023
	line	78
	
l1053:	
	line	75
	
l2023:	
	btfss	(___ftpack@arg+1),(15)&7
	goto	u2531
	goto	u2530
u2531:
	goto	l2021
u2530:
	
l1055:	
	line	79
	btfsc	(___ftpack@exp),(0)&7
	goto	u2541
	goto	u2540
u2541:
	goto	l1056
u2540:
	line	80
	
l2025:	
	movlw	0FFh
	andwf	(___ftpack@arg),f
	movlw	07Fh
	andwf	(___ftpack@arg+1),f
	movlw	0FFh
	andwf	(___ftpack@arg+2),f
	
l1056:	
	line	81
	clrc
	rrf	(___ftpack@exp),f

	line	82
	
l2027:	
	movf	(___ftpack@exp),w
	movwf	((??___ftpack+0)+0)
	clrf	((??___ftpack+0)+0+1)
	clrf	((??___ftpack+0)+0+2)
	movlw	010h
u2555:
	clrc
	rlf	(??___ftpack+0)+0,f
	rlf	(??___ftpack+0)+1,f
	rlf	(??___ftpack+0)+2,f
u2550:
	addlw	-1
	skipz
	goto	u2555
	movf	0+(??___ftpack+0)+0,w
	iorwf	(___ftpack@arg),f
	movf	1+(??___ftpack+0)+0,w
	iorwf	(___ftpack@arg+1),f
	movf	2+(??___ftpack+0)+0,w
	iorwf	(___ftpack@arg+2),f
	line	83
	
l2029:	
	movf	(___ftpack@sign),w
	skipz
	goto	u2560
	goto	l1057
u2560:
	line	84
	
l2031:	
	bsf	(___ftpack@arg)+(23/8),(23)&7
	
l1057:	
	line	85
	line	86
	
l1046:	
	return
	opt stack 0
GLOBAL	__end_of___ftpack
	__end_of___ftpack:
;; =============== function ___ftpack ends ============

	signat	___ftpack,12411
psect	text149,local,class=CODE,delta=2
global __ptext149
__ptext149:
	global	btemp
	btemp set 07Eh

	DABS	1,126,2	;btemp
	global	wtemp0
	wtemp0 set btemp
	end
